; Function Attrs: mustprogress uwtable
define noundef zeroext i1 @_ZN3g2o32OptimizationAlgorithmWithHessian4initEb(ptr noundef nonnull readonly align 8 captures(none) dereferenceable(80) %0, i1 noundef zeroext %1) unnamed_addr #4 align 2 {
  %3 = getelementptr inbounds nuw i8, ptr %0, i64 64
  %4 = load ptr, ptr %3, align 8, !tbaa !47
  %5 = getelementptr inbounds nuw i8, ptr %0, i64 72
  %6 = load ptr, ptr %5, align 8, !tbaa !19
  %7 = getelementptr inbounds nuw i8, ptr %6, i64 40
  %8 = load i8, ptr %7, align 1, !tbaa !17, !range !39, !noundef !40
  %9 = trunc nuw i8 %8 to i1
  %10 = load ptr, ptr %4, align 8, !tbaa !3
  %11 = getelementptr inbounds nuw i8, ptr %10, i64 104
  %12 = load ptr, ptr %11, align 8
  tail call void %12(ptr noundef nonnull align 8 dereferenceable(64) %4, i1 noundef zeroext %9)
  %13 = getelementptr inbounds nuw i8, ptr %0, i64 8
  %14 = load ptr, ptr %13, align 8, !tbaa !48
  %15 = getelementptr inbounds nuw i8, ptr %14, i64 328
  %16 = load ptr, ptr %15, align 8, !tbaa !49
  %17 = getelementptr inbounds nuw i8, ptr %14, i64 336
  %18 = load ptr, ptr %17, align 8, !tbaa !49
  %.not.not10 = icmp eq ptr %16, %18
  br i1 %.not.not10, label %.critedge, label %.lr.ph

19:                                               ; preds = %.lr.ph
  %20 = getelementptr inbounds nuw i8, ptr %.sroa.06.011, i64 8
  %.not.not = icmp eq ptr %20, %18
  br i1 %.not.not, label %.critedge, label %.lr.ph, !llvm.loop !51

.lr.ph:                                           ; preds = %2, %19
  %.sroa.06.011 = phi ptr [ %20, %19 ], [ %16, %2 ]
  %21 = load ptr, ptr %.sroa.06.011, align 8, !tbaa !52
  %22 = getelementptr inbounds nuw i8, ptr %21, i64 101
  %23 = load i8, ptr %22, align 1, !tbaa !54, !range !39, !noundef !40
  %24 = trunc nuw i8 %23 to i1
  br i1 %24, label %25, label %19

25:                                               ; preds = %.lr.ph
  %26 = load ptr, ptr %3, align 8, !tbaa !47
  %27 = load ptr, ptr %26, align 8, !tbaa !3
  %28 = getelementptr inbounds nuw i8, ptr %27, i64 80
  %29 = load ptr, ptr %28, align 8
  %30 = tail call noundef zeroext i1 %29(ptr noundef nonnull align 8 dereferenceable(64) %26)
  br i1 %30, label %.sink.split, label %40

.critedge:                                        ; preds = %19, %2
  %31 = load ptr, ptr %3, align 8, !tbaa !47
  %32 = load ptr, ptr %31, align 8, !tbaa !3
  %33 = getelementptr inbounds nuw i8, ptr %32, i64 80
  %34 = load ptr, ptr %33, align 8
  %35 = tail call noundef zeroext i1 %34(ptr noundef nonnull align 8 dereferenceable(64) %31)
  br i1 %35, label %.sink.split, label %40

.sink.split:                                      ; preds = %.critedge, %25
  %.sink13 = phi i1 [ true, %25 ], [ false, %.critedge ]
  %36 = load ptr, ptr %3, align 8, !tbaa !47
  %37 = load ptr, ptr %36, align 8, !tbaa !3
  %38 = getelementptr inbounds nuw i8, ptr %37, i64 96
  %39 = load ptr, ptr %38, align 8
  tail call void %39(ptr noundef nonnull align 8 dereferenceable(64) %36, i1 noundef zeroext %.sink13)
  br label %40

40:                                               ; preds = %.sink.split, %.critedge, %25
  %41 = load ptr, ptr %3, align 8, !tbaa !47
  %42 = load ptr, ptr %13, align 8, !tbaa !48
  %43 = load ptr, ptr %41, align 8, !tbaa !3
  %44 = getelementptr inbounds nuw i8, ptr %43, i64 16
  %45 = load ptr, ptr %44, align 8
  %46 = tail call noundef zeroext i1 %45(ptr noundef nonnull align 8 dereferenceable(64) %41, ptr noundef %42, i1 noundef zeroext %1)
  ret i1 %46
}